target datalayout = "e-m:e-p270:32:32-p271:32:32-p272:64:64-i64:64-i128:128-f80:128-n8:16:32:64-S128"
target triple = "x86_64-unknown-linux-gnu"

%"class.hermes::vm::StringView::const_iterator" = type { ptr, ptr }
%class.anon.78 = type { ptr, ptr }

; Function Attrs: mustprogress nounwind uwtable
define linkonce_odr hidden noundef zeroext i1 @_ZNK6hermes2vm10StringView14const_iteratoreqERKS2_(ptr noundef nonnull align 8 dereferenceable(16) %this, ptr noundef nonnull align 8 dereferenceable(16) %rhs) #0 comdat align 2 {
entry:
  %retval = alloca i1, align 1
  %this.addr = alloca ptr, align 8
  %rhs.addr = alloca ptr, align 8
  store ptr %this, ptr %this.addr, align 8
  store ptr %rhs, ptr %rhs.addr, align 8
  %this1 = load ptr, ptr %this.addr, align 8
  %charPtr_ = getelementptr inbounds %"class.hermes::vm::StringView::const_iterator", ptr %this1, i32 0, i32 0
  %0 = load ptr, ptr %charPtr_, align 8
  %tobool = icmp ne ptr %0, null
  br i1 %tobool, label %if.then, label %if.end

if.then:                                          ; preds = %entry
  %charPtr_2 = getelementptr inbounds %"class.hermes::vm::StringView::const_iterator", ptr %this1, i32 0, i32 0
  %1 = load ptr, ptr %charPtr_2, align 8
  %2 = load ptr, ptr %rhs.addr, align 8
  %charPtr_3 = getelementptr inbounds %"class.hermes::vm::StringView::const_iterator", ptr %2, i32 0, i32 0
  %3 = load ptr, ptr %charPtr_3, align 8
  %cmp = icmp eq ptr %1, %3
  store i1 %cmp, ptr %retval, align 1
  br label %return

if.end:                                           ; preds = %entry
  %char16Ptr_ = getelementptr inbounds %"class.hermes::vm::StringView::const_iterator", ptr %this1, i32 0, i32 1
  %4 = load ptr, ptr %char16Ptr_, align 8
  %5 = load ptr, ptr %rhs.addr, align 8
  %char16Ptr_4 = getelementptr inbounds %"class.hermes::vm::StringView::const_iterator", ptr %5, i32 0, i32 1
  %6 = load ptr, ptr %char16Ptr_4, align 8
  %cmp5 = icmp eq ptr %4, %6
  store i1 %cmp5, ptr %retval, align 1
  br label %return

return:                                           ; preds = %if.end, %if.then
  %7 = load i1, ptr %retval, align 1
  ret i1 %7
}

; Function Attrs: mustprogress nounwind uwtable
define linkonce_odr hidden noundef nonnull align 8 dereferenceable(16) ptr @_ZN6hermes2vm10StringView14const_iteratorppEv(ptr noundef nonnull align 8 dereferenceable(16) %this) #0 comdat align 2 {
entry:
  %this.addr = alloca ptr, align 8
  store ptr %this, ptr %this.addr, align 8
  %this1 = load ptr, ptr %this.addr, align 8
  %charPtr_ = getelementptr inbounds %"class.hermes::vm::StringView::const_iterator", ptr %this1, i32 0, i32 0
  %0 = load ptr, ptr %charPtr_, align 8
  %tobool = icmp ne ptr %0, null
  br i1 %tobool, label %if.then, label %if.else

if.then:                                          ; preds = %entry
  %charPtr_2 = getelementptr inbounds %"class.hermes::vm::StringView::const_iterator", ptr %this1, i32 0, i32 0
  %1 = load ptr, ptr %charPtr_2, align 8
  %incdec.ptr = getelementptr inbounds i8, ptr %1, i32 1
  store ptr %incdec.ptr, ptr %charPtr_2, align 8
  br label %if.end

if.else:                                          ; preds = %entry
  %char16Ptr_ = getelementptr inbounds %"class.hermes::vm::StringView::const_iterator", ptr %this1, i32 0, i32 1
  %2 = load ptr, ptr %char16Ptr_, align 8
  %incdec.ptr3 = getelementptr inbounds i16, ptr %2, i32 1
  store ptr %incdec.ptr3, ptr %char16Ptr_, align 8
  br label %if.end

if.end:                                           ; preds = %if.else, %if.then
  ret ptr %this1
}

; Function Attrs: mustprogress nounwind uwtable
define linkonce_odr hidden noundef zeroext i16 @_ZNK6hermes2vm10StringView14const_iteratordeEv(ptr noundef nonnull align 8 dereferenceable(16) %this) #0 comdat align 2 {
entry:
  %this.addr = alloca ptr, align 8
  store ptr %this, ptr %this.addr, align 8
  %this1 = load ptr, ptr %this.addr, align 8
  %charPtr_ = getelementptr inbounds %"class.hermes::vm::StringView::const_iterator", ptr %this1, i32 0, i32 0
  %0 = load ptr, ptr %charPtr_, align 8
  %tobool = icmp ne ptr %0, null
  br i1 %tobool, label %cond.true, label %cond.false

cond.true:                                        ; preds = %entry
  %charPtr_2 = getelementptr inbounds %"class.hermes::vm::StringView::const_iterator", ptr %this1, i32 0, i32 0
  %1 = load ptr, ptr %charPtr_2, align 8
  %2 = load i8, ptr %1, align 1
  %conv = sext i8 %2 to i32
  br label %cond.end

cond.false:                                       ; preds = %entry
  %char16Ptr_ = getelementptr inbounds %"class.hermes::vm::StringView::const_iterator", ptr %this1, i32 0, i32 1
  %3 = load ptr, ptr %char16Ptr_, align 8
  %4 = load i16, ptr %3, align 2
  %conv3 = zext i16 %4 to i32
  br label %cond.end

cond.end:                                         ; preds = %cond.false, %cond.true
  %cond = phi i32 [ %conv, %cond.true ], [ %conv3, %cond.false ]
  %conv4 = trunc i32 %cond to i16
  ret i16 %conv4
}

; Function Attrs: mustprogress nounwind uwtable
define linkonce_odr hidden noundef zeroext i1 @_ZNK6hermes2vm10StringView14const_iteratorneERKS2_(ptr noundef nonnull align 8 dereferenceable(16) %this, ptr noundef nonnull align 8 dereferenceable(16) %rhs) #0 comdat align 2 {
entry:
  %this.addr = alloca ptr, align 8
  %rhs.addr = alloca ptr, align 8
  store ptr %this, ptr %this.addr, align 8
  store ptr %rhs, ptr %rhs.addr, align 8
  %this1 = load ptr, ptr %this.addr, align 8
  %0 = load ptr, ptr %rhs.addr, align 8
  %call = call noundef zeroext i1 @_ZNK6hermes2vm10StringView14const_iteratoreqERKS2_(ptr noundef nonnull align 8 dereferenceable(16) %this1, ptr noundef nonnull align 8 dereferenceable(16) %0)
  %lnot = xor i1 %call, true
  ret i1 %lnot
}

; Function Attrs: mustprogress nounwind uwtable
define internal void @"_ZZN6hermes2vmL11parseESDateENS0_10StringViewEENK3$_5clEv"(ptr noundef nonnull align 8 dereferenceable(16) %this) #0 align 2 {
entry:
  %this.addr = alloca ptr, align 8
  %ref.tmp = alloca %"class.hermes::vm::StringView::const_iterator", align 8
  store ptr %this, ptr %this.addr, align 8
  %this1 = load ptr, ptr %this.addr, align 8
  br label %while.cond

while.cond:                                       ; preds = %while.body, %entry
  %0 = getelementptr inbounds %class.anon.78, ptr %this1, i32 0, i32 0
  %1 = load ptr, ptr %0, align 8
  %2 = getelementptr inbounds %class.anon.78, ptr %this1, i32 0, i32 1
  %3 = load ptr, ptr %2, align 8
  %call = call { ptr, ptr } @_ZNK6hermes2vm10StringView3endEv(ptr noundef nonnull align 8 dereferenceable(16) %3)
  %4 = getelementptr inbounds { ptr, ptr }, ptr %ref.tmp, i32 0, i32 0
  %5 = extractvalue { ptr, ptr } %call, 0
  store ptr %5, ptr %4, align 8
  %6 = getelementptr inbounds { ptr, ptr }, ptr %ref.tmp, i32 0, i32 1
  %7 = extractvalue { ptr, ptr } %call, 1
  store ptr %7, ptr %6, align 8
  %call2 = call noundef zeroext i1 @_ZNK6hermes2vm10StringView14const_iteratorneERKS2_(ptr noundef nonnull align 8 dereferenceable(16) %1, ptr noundef nonnull align 8 dereferenceable(16) %ref.tmp)
  br i1 %call2, label %land.rhs, label %land.end

land.rhs:                                         ; preds = %while.cond
  %8 = getelementptr inbounds %class.anon.78, ptr %this1, i32 0, i32 0
  %9 = load ptr, ptr %8, align 8
  %call3 = call noundef zeroext i16 @_ZNK6hermes2vm10StringView14const_iteratordeEv(ptr noundef nonnull align 8 dereferenceable(16) %9)
  %conv = zext i16 %call3 to i32
  %call4 = call i32 @isspace(i32 noundef %conv) #8
  %tobool = icmp ne i32 %call4, 0
  br label %land.end

land.end:                                         ; preds = %land.rhs, %while.cond
  %10 = phi i1 [ false, %while.cond ], [ %tobool, %land.rhs ]
  br i1 %10, label %while.body, label %while.end

while.body:                                       ; preds = %land.end
  %11 = getelementptr inbounds %class.anon.78, ptr %this1, i32 0, i32 0
  %12 = load ptr, ptr %11, align 8
  %call5 = call noundef nonnull align 8 dereferenceable(16) ptr @_ZN6hermes2vm10StringView14const_iteratorppEv(ptr noundef nonnull align 8 dereferenceable(16) %12)
  br label %while.cond, !llvm.loop !15

while.end:                                        ; preds = %land.end
  ret void
}