; Function Attrs: mustprogress nounwind uwtable
define internal fastcc void @"_ZZN6hermes2vmL11parseESDateENS0_10StringViewEENK3$_5clEv"(ptr nocapture noundef nonnull readonly align 8 dereferenceable(16) %this) unnamed_addr #0 align 2 {
entry:
  %0 = getelementptr inbounds i8, ptr %this, i64 8
  %1 = load ptr, ptr %this, align 8
  %2 = load ptr, ptr %0, align 8
  %call8 = tail call { ptr, ptr } @_ZNK6hermes2vm10StringView3endEv(ptr noundef nonnull align 8 dereferenceable(16) %2)
  %3 = extractvalue { ptr, ptr } %call8, 0
  %4 = extractvalue { ptr, ptr } %call8, 1
  %5 = load ptr, ptr %1, align 8
  %tobool.not.i.i9 = icmp eq ptr %5, null
  %char16Ptr_.i.i10 = getelementptr inbounds i8, ptr %1, i64 8
  %6 = load ptr, ptr %char16Ptr_.i.i10, align 8
  %.sink.i.i11 = select i1 %tobool.not.i.i9, ptr %6, ptr %5
  %.sroa.speculated12 = select i1 %tobool.not.i.i9, ptr %4, ptr %3
  %cmp5.i.i.not13 = icmp eq ptr %.sink.i.i11, %.sroa.speculated12
  br i1 %cmp5.i.i.not13, label %while.end, label %land.rhs

land.rhs:                                         ; preds = %entry, %_ZN6hermes2vm10StringView14const_iteratorppEv.exit
  %7 = load ptr, ptr %this, align 8
  %8 = load ptr, ptr %7, align 8
  %tobool.not.i = icmp eq ptr %8, null
  br i1 %tobool.not.i, label %_ZNK6hermes2vm10StringView14const_iteratordeEv.exit, label %_ZNK6hermes2vm10StringView14const_iteratordeEv.exit.thread

_ZNK6hermes2vm10StringView14const_iteratordeEv.exit: ; preds = %land.rhs
  %char16Ptr_.i = getelementptr inbounds i8, ptr %7, i64 8
  %9 = load ptr, ptr %char16Ptr_.i, align 8
  %10 = load i16, ptr %9, align 2
  %conv = zext i16 %10 to i32
  %call4 = tail call i32 @isspace(i32 noundef %conv) #18
  %tobool.not = icmp eq i32 %call4, 0
  br i1 %tobool.not, label %while.end, label %if.else.i

_ZNK6hermes2vm10StringView14const_iteratordeEv.exit.thread: ; preds = %land.rhs
  %11 = load i8, ptr %8, align 1
  %12 = sext i8 %11 to i32
  %conv5 = and i32 %12, 65535
  %call46 = tail call i32 @isspace(i32 noundef %conv5) #18
  %tobool.not7 = icmp eq i32 %call46, 0
  br i1 %tobool.not7, label %while.end, label %if.then.i

if.then.i:                                        ; preds = %_ZNK6hermes2vm10StringView14const_iteratordeEv.exit.thread
  %incdec.ptr.i = getelementptr inbounds i8, ptr %8, i64 1
  store ptr %incdec.ptr.i, ptr %7, align 8
  br label %_ZN6hermes2vm10StringView14const_iteratorppEv.exit

if.else.i:                                        ; preds = %_ZNK6hermes2vm10StringView14const_iteratordeEv.exit
  %incdec.ptr3.i = getelementptr inbounds i8, ptr %9, i64 2
  store ptr %incdec.ptr3.i, ptr %char16Ptr_.i, align 8
  br label %_ZN6hermes2vm10StringView14const_iteratorppEv.exit

_ZN6hermes2vm10StringView14const_iteratorppEv.exit: ; preds = %if.then.i, %if.else.i
  %13 = load ptr, ptr %this, align 8
  %14 = load ptr, ptr %0, align 8
  %call = tail call { ptr, ptr } @_ZNK6hermes2vm10StringView3endEv(ptr noundef nonnull align 8 dereferenceable(16) %14)
  %15 = extractvalue { ptr, ptr } %call, 0
  %16 = extractvalue { ptr, ptr } %call, 1
  %17 = load ptr, ptr %13, align 8
  %tobool.not.i.i = icmp eq ptr %17, null
  %char16Ptr_.i.i = getelementptr inbounds i8, ptr %13, i64 8
  %18 = load ptr, ptr %char16Ptr_.i.i, align 8
  %.sink.i.i = select i1 %tobool.not.i.i, ptr %18, ptr %17
  %.sroa.speculated = select i1 %tobool.not.i.i, ptr %16, ptr %15
  %cmp5.i.i.not = icmp eq ptr %.sink.i.i, %.sroa.speculated
  br i1 %cmp5.i.i.not, label %while.end, label %land.rhs, !llvm.loop !59

while.end:                                        ; preds = %_ZNK6hermes2vm10StringView14const_iteratordeEv.exit, %_ZN6hermes2vm10StringView14const_iteratorppEv.exit, %_ZNK6hermes2vm10StringView14const_iteratordeEv.exit.thread, %entry
  ret void
}